target datalayout = "e-m:e-p270:32:32-p271:32:32-p272:64:64-i64:64-i128:128-f80:128-n8:16:32:64-S128"
target triple = "x86_64-pc-linux-gnu"

%struct._cmsStage_struct = type { ptr, i32, i32, i32, i32, ptr, ptr, ptr, ptr, ptr }
%struct._cmsPipeline_struct = type { ptr, i32, i32, ptr, ptr, ptr, ptr, ptr, ptr, i32 }

; Function Attrs: nounwind uwtable
define hidden ptr @cmsPipelineGetPtrToLastStage(ptr noundef %0) #0 {
  %2 = alloca ptr, align 8
  %3 = alloca ptr, align 8
  %4 = alloca ptr, align 8
  store ptr %0, ptr %2, align 8
  store ptr null, ptr %4, align 8
  %5 = load ptr, ptr %2, align 8
  %6 = getelementptr inbounds %struct._cmsPipeline_struct, ptr %5, i32 0, i32 0
  %7 = load ptr, ptr %6, align 8
  store ptr %7, ptr %3, align 8
  br label %8

8:                                                ; preds = %13, %1
  %9 = load ptr, ptr %3, align 8
  %10 = icmp ne ptr %9, null
  br i1 %10, label %11, label %17

11:                                               ; preds = %8
  %12 = load ptr, ptr %3, align 8
  store ptr %12, ptr %4, align 8
  br label %13

13:                                               ; preds = %11
  %14 = load ptr, ptr %3, align 8
  %15 = getelementptr inbounds %struct._cmsStage_struct, ptr %14, i32 0, i32 9
  %16 = load ptr, ptr %15, align 8
  store ptr %16, ptr %3, align 8
  br label %8, !llvm.loop !49

17:                                               ; preds = %8
  %18 = load ptr, ptr %4, align 8
  ret ptr %18
}

; Function Attrs: nounwind uwtable
define hidden ptr @cmsPipelineGetPtrToFirstStage(ptr noundef %0) #0 {
  %2 = alloca ptr, align 8
  store ptr %0, ptr %2, align 8
  %3 = load ptr, ptr %2, align 8
  %4 = getelementptr inbounds %struct._cmsPipeline_struct, ptr %3, i32 0, i32 0
  %5 = load ptr, ptr %4, align 8
  ret ptr %5
}

; Function Attrs: nounwind uwtable
define internal i32 @BlessLUT(ptr noundef %0) #0 {
  %2 = alloca i32, align 4
  %3 = alloca ptr, align 8
  %4 = alloca ptr, align 8
  %5 = alloca ptr, align 8
  %6 = alloca ptr, align 8
  %7 = alloca ptr, align 8
  store ptr %0, ptr %3, align 8
  %8 = load ptr, ptr %3, align 8
  %9 = getelementptr inbounds %struct._cmsPipeline_struct, ptr %8, i32 0, i32 0
  %10 = load ptr, ptr %9, align 8
  %11 = icmp ne ptr %10, null
  br i1 %11, label %12, label %58

12:                                               ; preds = %1
  %13 = load ptr, ptr %3, align 8
  %14 = call ptr @cmsPipelineGetPtrToFirstStage(ptr noundef %13)
  store ptr %14, ptr %6, align 8
  %15 = load ptr, ptr %3, align 8
  %16 = call ptr @cmsPipelineGetPtrToLastStage(ptr noundef %15)
  store ptr %16, ptr %7, align 8
  %17 = load ptr, ptr %6, align 8
  %18 = icmp eq ptr %17, null
  br i1 %18, label %22, label %19

19:                                               ; preds = %12
  %20 = load ptr, ptr %7, align 8
  %21 = icmp eq ptr %20, null
  br i1 %21, label %22, label %23

22:                                               ; preds = %19, %12
  store i32 0, ptr %2, align 4
  br label %59

23:                                               ; preds = %19
  %24 = load ptr, ptr %6, align 8
  %25 = getelementptr inbounds %struct._cmsStage_struct, ptr %24, i32 0, i32 3
  %26 = load i32, ptr %25, align 8
  %27 = load ptr, ptr %3, align 8
  %28 = getelementptr inbounds %struct._cmsPipeline_struct, ptr %27, i32 0, i32 1
  store i32 %26, ptr %28, align 8
  %29 = load ptr, ptr %7, align 8
  %30 = getelementptr inbounds %struct._cmsStage_struct, ptr %29, i32 0, i32 4
  %31 = load i32, ptr %30, align 4
  %32 = load ptr, ptr %3, align 8
  %33 = getelementptr inbounds %struct._cmsPipeline_struct, ptr %32, i32 0, i32 2
  store i32 %31, ptr %33, align 4
  %34 = load ptr, ptr %6, align 8
  store ptr %34, ptr %4, align 8
  %35 = load ptr, ptr %4, align 8
  %36 = getelementptr inbounds %struct._cmsStage_struct, ptr %35, i32 0, i32 9
  %37 = load ptr, ptr %36, align 8
  store ptr %37, ptr %5, align 8
  br label %38

38:                                               ; preds = %50, %23
  %39 = load ptr, ptr %5, align 8
  %40 = icmp ne ptr %39, null
  br i1 %40, label %41, label %57

41:                                               ; preds = %38
  %42 = load ptr, ptr %5, align 8
  %43 = getelementptr inbounds %struct._cmsStage_struct, ptr %42, i32 0, i32 3
  %44 = load i32, ptr %43, align 8
  %45 = load ptr, ptr %4, align 8
  %46 = getelementptr inbounds %struct._cmsStage_struct, ptr %45, i32 0, i32 4
  %47 = load i32, ptr %46, align 4
  %48 = icmp ne i32 %44, %47
  br i1 %48, label %49, label %50

49:                                               ; preds = %41
  store i32 0, ptr %2, align 4
  br label %59

50:                                               ; preds = %41
  %51 = load ptr, ptr %5, align 8
  %52 = getelementptr inbounds %struct._cmsStage_struct, ptr %51, i32 0, i32 9
  %53 = load ptr, ptr %52, align 8
  store ptr %53, ptr %5, align 8
  %54 = load ptr, ptr %4, align 8
  %55 = getelementptr inbounds %struct._cmsStage_struct, ptr %54, i32 0, i32 9
  %56 = load ptr, ptr %55, align 8
  store ptr %56, ptr %4, align 8
  br label %38, !llvm.loop !43

57:                                               ; preds = %38
  br label %58

58:                                               ; preds = %57, %1
  store i32 1, ptr %2, align 4
  br label %59

59:                                               ; preds = %58, %49, %22
  %60 = load i32, ptr %2, align 4
  ret i32 %60
}

; Function Attrs: nounwind uwtable
define hidden i32 @cmsPipelineInsertStage(ptr noundef %0, i32 noundef %1, ptr noundef %2) #0 {
  %4 = alloca i32, align 4
  %5 = alloca ptr, align 8
  %6 = alloca i32, align 4
  %7 = alloca ptr, align 8
  %8 = alloca ptr, align 8
  %9 = alloca ptr, align 8
  store ptr %0, ptr %5, align 8
  store i32 %1, ptr %6, align 4
  store ptr %2, ptr %7, align 8
  store ptr null, ptr %8, align 8
  %10 = load ptr, ptr %5, align 8
  %11 = icmp eq ptr %10, null
  br i1 %11, label %15, label %12

12:                                               ; preds = %3
  %13 = load ptr, ptr %7, align 8
  %14 = icmp eq ptr %13, null
  br i1 %14, label %15, label %16

15:                                               ; preds = %12, %3
  store i32 0, ptr %4, align 4
  br label %60

16:                                               ; preds = %12
  %17 = load i32, ptr %6, align 4
  switch i32 %17, label %56 [
    i32 0, label %18
    i32 1, label %27
  ]

18:                                               ; preds = %16
  %19 = load ptr, ptr %5, align 8
  %20 = getelementptr inbounds %struct._cmsPipeline_struct, ptr %19, i32 0, i32 0
  %21 = load ptr, ptr %20, align 8
  %22 = load ptr, ptr %7, align 8
  %23 = getelementptr inbounds %struct._cmsStage_struct, ptr %22, i32 0, i32 9
  store ptr %21, ptr %23, align 8
  %24 = load ptr, ptr %7, align 8
  %25 = load ptr, ptr %5, align 8
  %26 = getelementptr inbounds %struct._cmsPipeline_struct, ptr %25, i32 0, i32 0
  store ptr %24, ptr %26, align 8
  br label %57

27:                                               ; preds = %16
  %28 = load ptr, ptr %5, align 8
  %29 = getelementptr inbounds %struct._cmsPipeline_struct, ptr %28, i32 0, i32 0
  %30 = load ptr, ptr %29, align 8
  %31 = icmp eq ptr %30, null
  br i1 %31, label %32, label %36

32:                                               ; preds = %27
  %33 = load ptr, ptr %7, align 8
  %34 = load ptr, ptr %5, align 8
  %35 = getelementptr inbounds %struct._cmsPipeline_struct, ptr %34, i32 0, i32 0
  store ptr %33, ptr %35, align 8
  br label %55

36:                                               ; preds = %27
  %37 = load ptr, ptr %5, align 8
  %38 = getelementptr inbounds %struct._cmsPipeline_struct, ptr %37, i32 0, i32 0
  %39 = load ptr, ptr %38, align 8
  store ptr %39, ptr %9, align 8
  br label %40

40:                                               ; preds = %45, %36
  %41 = load ptr, ptr %9, align 8
  %42 = icmp ne ptr %41, null
  br i1 %42, label %43, label %49

43:                                               ; preds = %40
  %44 = load ptr, ptr %9, align 8
  store ptr %44, ptr %8, align 8
  br label %45

45:                                               ; preds = %43
  %46 = load ptr, ptr %9, align 8
  %47 = getelementptr inbounds %struct._cmsStage_struct, ptr %46, i32 0, i32 9
  %48 = load ptr, ptr %47, align 8
  store ptr %48, ptr %9, align 8
  br label %40, !llvm.loop !46

49:                                               ; preds = %40
  %50 = load ptr, ptr %7, align 8
  %51 = load ptr, ptr %8, align 8
  %52 = getelementptr inbounds %struct._cmsStage_struct, ptr %51, i32 0, i32 9
  store ptr %50, ptr %52, align 8
  %53 = load ptr, ptr %7, align 8
  %54 = getelementptr inbounds %struct._cmsStage_struct, ptr %53, i32 0, i32 9
  store ptr null, ptr %54, align 8
  br label %55

55:                                               ; preds = %49, %32
  br label %57

56:                                               ; preds = %16
  store i32 0, ptr %4, align 4
  br label %60

57:                                               ; preds = %55, %18
  %58 = load ptr, ptr %5, align 8
  %59 = call i32 @BlessLUT(ptr noundef %58)
  store i32 %59, ptr %4, align 4
  br label %60

60:                                               ; preds = %57, %56, %15
  %61 = load i32, ptr %4, align 4
  ret i32 %61
}