; Function Attrs: nofree norecurse nosync nounwind memory(readwrite, inaccessiblemem: none) uwtable
define hidden range(i32 0, 2) i32 @cmsPipelineInsertStage(ptr noundef %0, i32 noundef %1, ptr noundef %2) local_unnamed_addr #13 {
  %4 = icmp eq ptr %0, null
  %5 = icmp eq ptr %2, null
  %or.cond = or i1 %4, %5
  br i1 %or.cond, label %BlessLUT.exit, label %6

6:                                                ; preds = %3
  switch i32 %1, label %BlessLUT.exit [
    i32 0, label %7
    i32 1, label %10
  ]

7:                                                ; preds = %6
  %8 = load ptr, ptr %0, align 8
  %9 = getelementptr inbounds i8, ptr %2, i64 56
  store ptr %8, ptr %9, align 8
  br label %thread-pre-split.i.preheader.sink.split

10:                                               ; preds = %6
  %11 = load ptr, ptr %0, align 8
  %12 = icmp eq ptr %11, null
  br i1 %12, label %thread-pre-split.i.preheader.sink.split, label %.preheader

.preheader:                                       ; preds = %10, %.preheader
  %.024 = phi ptr [ %14, %.preheader ], [ %11, %10 ]
  %13 = getelementptr inbounds i8, ptr %.024, i64 56
  %14 = load ptr, ptr %13, align 8
  %.not = icmp eq ptr %14, null
  br i1 %.not, label %15, label %.preheader, !llvm.loop !49

15:                                               ; preds = %.preheader
  %16 = getelementptr inbounds i8, ptr %.024, i64 56
  store ptr %2, ptr %16, align 8
  %17 = getelementptr inbounds i8, ptr %2, i64 56
  store ptr null, ptr %17, align 8
  %.pr = load ptr, ptr %0, align 8
  %.not.i = icmp eq ptr %.pr, null
  br i1 %.not.i, label %BlessLUT.exit, label %thread-pre-split.i.preheader

thread-pre-split.i.preheader.sink.split:          ; preds = %10, %7
  store ptr %2, ptr %0, align 8
  br label %thread-pre-split.i.preheader

thread-pre-split.i.preheader:                     ; preds = %thread-pre-split.i.preheader.sink.split, %15
  %18 = phi ptr [ %.pr, %15 ], [ %2, %thread-pre-split.i.preheader.sink.split ]
  br label %thread-pre-split.i

thread-pre-split.i:                               ; preds = %thread-pre-split.i.preheader, %thread-pre-split.i
  %.05.i23.i = phi ptr [ %.05.i.pr.i, %thread-pre-split.i ], [ %18, %thread-pre-split.i.preheader ]
  %19 = getelementptr inbounds i8, ptr %.05.i23.i, i64 56
  %.05.i.pr.i = load ptr, ptr %19, align 8
  %.not.i.i = icmp eq ptr %.05.i.pr.i, null
  br i1 %.not.i.i, label %cmsPipelineGetPtrToLastStage.exit.i, label %thread-pre-split.i, !llvm.loop !43

cmsPipelineGetPtrToLastStage.exit.i:              ; preds = %thread-pre-split.i
  %20 = getelementptr inbounds i8, ptr %18, i64 16
  %21 = load i32, ptr %20, align 8
  %22 = getelementptr inbounds i8, ptr %0, i64 8
  store i32 %21, ptr %22, align 8
  %23 = getelementptr inbounds i8, ptr %.05.i23.i, i64 20
  %24 = load i32, ptr %23, align 4
  %25 = getelementptr inbounds i8, ptr %0, i64 12
  store i32 %24, ptr %25, align 4
  %.018.in24.i = getelementptr inbounds i8, ptr %18, i64 56
  %.01825.i = load ptr, ptr %.018.in24.i, align 8
  %.not2126.i = icmp eq ptr %.01825.i, null
  br i1 %.not2126.i, label %BlessLUT.exit, label %.lr.ph.i

.lr.ph.i:                                         ; preds = %cmsPipelineGetPtrToLastStage.exit.i, %30
  %.01828.i = phi ptr [ %.018.i, %30 ], [ %.01825.i, %cmsPipelineGetPtrToLastStage.exit.i ]
  %.01727.i = phi ptr [ %32, %30 ], [ %18, %cmsPipelineGetPtrToLastStage.exit.i ]
  %26 = getelementptr inbounds i8, ptr %.01828.i, i64 16
  %27 = load i32, ptr %26, align 8
  %28 = getelementptr inbounds i8, ptr %.01727.i, i64 20
  %29 = load i32, ptr %28, align 4
  %.not22.i = icmp eq i32 %27, %29
  br i1 %.not22.i, label %30, label %BlessLUT.exit

30:                                               ; preds = %.lr.ph.i
  %31 = getelementptr inbounds i8, ptr %.01727.i, i64 56
  %32 = load ptr, ptr %31, align 8
  %.018.in.i = getelementptr inbounds i8, ptr %.01828.i, i64 56
  %.018.i = load ptr, ptr %.018.in.i, align 8
  %.not21.i = icmp eq ptr %.018.i, null
  br i1 %.not21.i, label %BlessLUT.exit, label %.lr.ph.i, !llvm.loop !44

BlessLUT.exit:                                    ; preds = %30, %.lr.ph.i, %cmsPipelineGetPtrToLastStage.exit.i, %15, %6, %3
  %.020 = phi i32 [ 0, %3 ], [ 0, %6 ], [ 1, %15 ], [ 1, %cmsPipelineGetPtrToLastStage.exit.i ], [ 1, %30 ], [ 0, %.lr.ph.i ]
  ret i32 %.020
}